target datalayout = "e-m:e-p270:32:32-p271:32:32-p272:64:64-i64:64-i128:128-f80:128-n8:16:32:64-S128"
target triple = "x86_64-pc-linux-gnu"

@.str = private unnamed_addr constant [25 x i8] c"../openssl/test/ectest.c\00", align 1
@.str.27 = private unnamed_addr constant [2 x i8] c"0\00", align 1
@.str.239 = private unnamed_addr constant [34 x i8] c"EC_POINT_is_at_infinity(group, Q)\00", align 1
@.str.530 = private unnamed_addr constant [27 x i8] c"Pinf = EC_POINT_new(group)\00", align 1
@.str.531 = private unnamed_addr constant [38 x i8] c"EC_POINT_set_to_infinity(group, Pinf)\00", align 1
@.str.532 = private unnamed_addr constant [48 x i8] c"hex = EC_POINT_point2hex(group, P, form, bnctx)\00", align 1
@.str.533 = private unnamed_addr constant [48 x i8] c"Q = EC_POINT_hex2point(group, hex, NULL, bnctx)\00", align 1
@.str.534 = private unnamed_addr constant [33 x i8] c"EC_POINT_cmp(group, Q, P, bnctx)\00", align 1

; Function Attrs: inlinehint nounwind uwtable
define internal i32 @ec_point_hex2point_test_helper(ptr noundef %0, ptr noundef %1, i32 noundef %2, ptr noundef %3) #4 {
  %5 = alloca ptr, align 8
  %6 = alloca ptr, align 8
  %7 = alloca i32, align 4
  %8 = alloca ptr, align 8
  %9 = alloca i32, align 4
  %10 = alloca ptr, align 8
  %11 = alloca ptr, align 8
  %12 = alloca ptr, align 8
  store ptr %0, ptr %5, align 8, !tbaa !10
  store ptr %1, ptr %6, align 8, !tbaa !24
  store i32 %2, ptr %7, align 4, !tbaa !16
  store ptr %3, ptr %8, align 8, !tbaa !20
  call void @llvm.lifetime.start.p0(i64 4, ptr %9) #7
  store i32 0, ptr %9, align 4, !tbaa !16
  call void @llvm.lifetime.start.p0(i64 8, ptr %10) #7
  store ptr null, ptr %10, align 8, !tbaa !24
  call void @llvm.lifetime.start.p0(i64 8, ptr %11) #7
  store ptr null, ptr %11, align 8, !tbaa !24
  call void @llvm.lifetime.start.p0(i64 8, ptr %12) #7
  store ptr null, ptr %12, align 8, !tbaa !14
  %13 = load ptr, ptr %6, align 8, !tbaa !24
  %14 = icmp eq ptr %13, null
  br i1 %14, label %15, label %31

15:                                               ; preds = %4
  %16 = load ptr, ptr %5, align 8, !tbaa !10
  %17 = call ptr @EC_POINT_new(ptr noundef %16)
  store ptr %17, ptr %11, align 8, !tbaa !24
  %18 = call i32 @test_ptr(ptr noundef @.str, i32 noundef 2420, ptr noundef @.str.530, ptr noundef %17)
  %19 = icmp ne i32 %18, 0
  br i1 %19, label %20, label %28

20:                                               ; preds = %15
  %21 = load ptr, ptr %5, align 8, !tbaa !10
  %22 = load ptr, ptr %11, align 8, !tbaa !24
  %23 = call i32 @EC_POINT_set_to_infinity(ptr noundef %21, ptr noundef %22)
  %24 = icmp ne i32 %23, 0
  %25 = zext i1 %24 to i32
  %26 = call i32 @test_true(ptr noundef @.str, i32 noundef 2421, ptr noundef @.str.531, i32 noundef %25)
  %27 = icmp ne i32 %26, 0
  br i1 %27, label %29, label %28

28:                                               ; preds = %20, %15
  br label %68

29:                                               ; preds = %20
  %30 = load ptr, ptr %11, align 8, !tbaa !24
  store ptr %30, ptr %6, align 8, !tbaa !24
  br label %31

31:                                               ; preds = %29, %4
  %32 = load ptr, ptr %5, align 8, !tbaa !10
  %33 = load ptr, ptr %6, align 8, !tbaa !24
  %34 = load i32, ptr %7, align 4, !tbaa !16
  %35 = load ptr, ptr %8, align 8, !tbaa !20
  %36 = call ptr @EC_POINT_point2hex(ptr noundef %32, ptr noundef %33, i32 noundef %34, ptr noundef %35)
  store ptr %36, ptr %12, align 8, !tbaa !14
  %37 = call i32 @test_ptr(ptr noundef @.str, i32 noundef 2426, ptr noundef @.str.532, ptr noundef %36)
  %38 = icmp ne i32 %37, 0
  br i1 %38, label %39, label %54

39:                                               ; preds = %31
  %40 = load ptr, ptr %5, align 8, !tbaa !10
  %41 = load ptr, ptr %12, align 8, !tbaa !14
  %42 = load ptr, ptr %8, align 8, !tbaa !20
  %43 = call ptr @EC_POINT_hex2point(ptr noundef %40, ptr noundef %41, ptr noundef null, ptr noundef %42)
  store ptr %43, ptr %10, align 8, !tbaa !24
  %44 = call i32 @test_ptr(ptr noundef @.str, i32 noundef 2427, ptr noundef @.str.533, ptr noundef %43)
  %45 = icmp ne i32 %44, 0
  br i1 %45, label %46, label %54

46:                                               ; preds = %39
  %47 = load ptr, ptr %5, align 8, !tbaa !10
  %48 = load ptr, ptr %10, align 8, !tbaa !24
  %49 = load ptr, ptr %6, align 8, !tbaa !24
  %50 = load ptr, ptr %8, align 8, !tbaa !20
  %51 = call i32 @EC_POINT_cmp(ptr noundef %47, ptr noundef %48, ptr noundef %49, ptr noundef %50)
  %52 = call i32 @test_int_eq(ptr noundef @.str, i32 noundef 2428, ptr noundef @.str.27, ptr noundef @.str.534, i32 noundef 0, i32 noundef %51)
  %53 = icmp ne i32 %52, 0
  br i1 %53, label %55, label %54

54:                                               ; preds = %46, %39, %31
  br label %68

55:                                               ; preds = %46
  %56 = load ptr, ptr %11, align 8, !tbaa !24
  %57 = icmp ne ptr %56, null
  br i1 %57, label %58, label %67

58:                                               ; preds = %55
  %59 = load ptr, ptr %5, align 8, !tbaa !10
  %60 = load ptr, ptr %10, align 8, !tbaa !24
  %61 = call i32 @EC_POINT_is_at_infinity(ptr noundef %59, ptr noundef %60)
  %62 = icmp ne i32 %61, 0
  %63 = zext i1 %62 to i32
  %64 = call i32 @test_true(ptr noundef @.str, i32 noundef 2438, ptr noundef @.str.239, i32 noundef %63)
  %65 = icmp ne i32 %64, 0
  br i1 %65, label %67, label %66

66:                                               ; preds = %58
  br label %68

67:                                               ; preds = %58, %55
  store i32 1, ptr %9, align 4, !tbaa !16
  br label %68

68:                                               ; preds = %67, %66, %54, %28
  %69 = load ptr, ptr %11, align 8, !tbaa !24
  call void @EC_POINT_free(ptr noundef %69)
  %70 = load ptr, ptr %12, align 8, !tbaa !14
  call void @CRYPTO_free(ptr noundef %70, ptr noundef @.str, i32 noundef 2445)
  %71 = load ptr, ptr %10, align 8, !tbaa !24
  call void @EC_POINT_free(ptr noundef %71)
  %72 = load i32, ptr %9, align 4, !tbaa !16
  call void @llvm.lifetime.end.p0(i64 8, ptr %12) #7
  call void @llvm.lifetime.end.p0(i64 8, ptr %11) #7
  call void @llvm.lifetime.end.p0(i64 8, ptr %10) #7
  call void @llvm.lifetime.end.p0(i64 4, ptr %9) #7
  ret i32 %72
}