; Function Attrs: inlinehint nounwind uwtable
define internal fastcc range(i32 0, 2) i32 @ec_point_hex2point_test_helper(ptr noundef %0, ptr noundef %1, i32 noundef range(i32 2, 7) %2, ptr noundef %3) unnamed_addr #5 {
  %5 = icmp eq ptr %1, null
  br i1 %5, label %6, label %14

6:                                                ; preds = %4
  %7 = tail call ptr @EC_POINT_new(ptr noundef %0) #7
  %8 = tail call i32 @test_ptr(ptr noundef nonnull @.str, i32 noundef 2420, ptr noundef nonnull @.str.530, ptr noundef %7) #7
  %.not = icmp eq i32 %8, 0
  br i1 %.not, label %30, label %9

9:                                                ; preds = %6
  %10 = tail call i32 @EC_POINT_set_to_infinity(ptr noundef %0, ptr noundef %7) #7
  %11 = icmp ne i32 %10, 0
  %12 = zext i1 %11 to i32
  %13 = tail call i32 @test_true(ptr noundef nonnull @.str, i32 noundef 2421, ptr noundef nonnull @.str.531, i32 noundef %12) #7
  %.not27 = icmp eq i32 %13, 0
  br i1 %.not27, label %30, label %14

14:                                               ; preds = %9, %4
  %.025 = phi ptr [ %1, %4 ], [ %7, %9 ]
  %.022 = phi ptr [ null, %4 ], [ %7, %9 ]
  %15 = tail call ptr @EC_POINT_point2hex(ptr noundef %0, ptr noundef %.025, i32 noundef %2, ptr noundef %3) #7
  %16 = tail call i32 @test_ptr(ptr noundef nonnull @.str, i32 noundef 2426, ptr noundef nonnull @.str.532, ptr noundef %15) #7
  %.not28 = icmp eq i32 %16, 0
  br i1 %.not28, label %30, label %17

17:                                               ; preds = %14
  %18 = tail call ptr @EC_POINT_hex2point(ptr noundef %0, ptr noundef %15, ptr noundef null, ptr noundef %3) #7
  %19 = tail call i32 @test_ptr(ptr noundef nonnull @.str, i32 noundef 2427, ptr noundef nonnull @.str.533, ptr noundef %18) #7
  %.not29 = icmp eq i32 %19, 0
  br i1 %.not29, label %30, label %20

20:                                               ; preds = %17
  %21 = tail call i32 @EC_POINT_cmp(ptr noundef %0, ptr noundef %18, ptr noundef %.025, ptr noundef %3) #7
  %22 = tail call i32 @test_int_eq(ptr noundef nonnull @.str, i32 noundef 2428, ptr noundef nonnull @.str.27, ptr noundef nonnull @.str.534, i32 noundef 0, i32 noundef %21) #7
  %.not30 = icmp eq i32 %22, 0
  br i1 %.not30, label %30, label %23

23:                                               ; preds = %20
  %.not31 = icmp eq ptr %.022, null
  br i1 %.not31, label %29, label %24

24:                                               ; preds = %23
  %25 = tail call i32 @EC_POINT_is_at_infinity(ptr noundef %0, ptr noundef %18) #7
  %26 = icmp ne i32 %25, 0
  %27 = zext i1 %26 to i32
  %28 = tail call i32 @test_true(ptr noundef nonnull @.str, i32 noundef 2438, ptr noundef nonnull @.str.239, i32 noundef %27) #7
  %.not32 = icmp eq i32 %28, 0
  br i1 %.not32, label %30, label %29

29:                                               ; preds = %24, %23
  br label %30

30:                                               ; preds = %24, %14, %17, %20, %6, %9, %29
  %.024 = phi i32 [ 1, %29 ], [ 0, %24 ], [ 0, %20 ], [ 0, %17 ], [ 0, %14 ], [ 0, %9 ], [ 0, %6 ]
  %.023 = phi ptr [ %18, %29 ], [ %18, %24 ], [ %18, %20 ], [ %18, %17 ], [ null, %14 ], [ null, %9 ], [ null, %6 ]
  %.1 = phi ptr [ %.022, %29 ], [ %.022, %24 ], [ %.022, %20 ], [ %.022, %17 ], [ %.022, %14 ], [ %7, %9 ], [ %7, %6 ]
  %.0 = phi ptr [ %15, %29 ], [ %15, %24 ], [ %15, %20 ], [ %15, %17 ], [ %15, %14 ], [ null, %9 ], [ null, %6 ]
  tail call void @EC_POINT_free(ptr noundef %.1) #7
  tail call void @CRYPTO_free(ptr noundef %.0, ptr noundef nonnull @.str, i32 noundef 2445) #7
  tail call void @EC_POINT_free(ptr noundef %.023) #7
  ret i32 %.024
}